target datalayout = "e-m:e-p270:32:32-p271:32:32-p272:64:64-i64:64-i128:128-f80:128-n8:16:32:64-S128"
target triple = "x86_64-pc-linux-gnu"

%struct._object = type { %union.anon, ptr }
%union.anon = type { i64 }
%struct._longobject = type { %struct._object, %struct._PyLongValue }
%struct._PyLongValue = type { i64, [1 x i32] }
%struct.anon = type { i32, i32 }
%struct.stat = type { i64, i64, i64, i32, i32, i32, i32, i64, i64, i64, i64, %struct.timespec, %struct.timespec, %struct.timespec, [3 x i64] }
%struct.timespec = type { i64, i64 }

@.str.49 = private unnamed_addr constant [2 x i8] c"U\00", align 1
@_Py_FalseStruct = external global %struct._longobject, align 8
@_Py_TrueStruct = external global %struct._longobject, align 8

; Function Attrs: alwaysinline nounwind uwtable
define internal void @Py_INCREF(ptr noundef %0) #5 {
  %2 = alloca ptr, align 8
  %3 = alloca i32, align 4
  %4 = alloca i32, align 4
  store ptr %0, ptr %2, align 8, !tbaa !16
  call void @llvm.lifetime.start.p0(i64 4, ptr %3) #10
  %5 = load ptr, ptr %2, align 8, !tbaa !16
  %6 = getelementptr inbounds nuw %struct._object, ptr %5, i32 0, i32 0
  %7 = getelementptr inbounds nuw %struct.anon, ptr %6, i32 0, i32 0
  %8 = load i32, ptr %7, align 8, !tbaa !26
  store i32 %8, ptr %3, align 4, !tbaa !9
  %9 = load i32, ptr %3, align 4, !tbaa !9
  %10 = icmp slt i32 %9, 0
  br i1 %10, label %11, label %12

11:                                               ; preds = %1
  store i32 1, ptr %4, align 4
  br label %18

12:                                               ; preds = %1
  %13 = load i32, ptr %3, align 4, !tbaa !9
  %14 = add i32 %13, 1
  %15 = load ptr, ptr %2, align 8, !tbaa !16
  %16 = getelementptr inbounds nuw %struct._object, ptr %15, i32 0, i32 0
  %17 = getelementptr inbounds nuw %struct.anon, ptr %16, i32 0, i32 0
  store i32 %14, ptr %17, align 8, !tbaa !26
  store i32 0, ptr %4, align 4
  br label %18

18:                                               ; preds = %12, %11
  call void @llvm.lifetime.end.p0(i64 4, ptr %3) #10
  %19 = load i32, ptr %4, align 4
  switch i32 %19, label %21 [
    i32 0, label %20
    i32 1, label %20
  ]

20:                                               ; preds = %18, %18
  ret void

21:                                               ; preds = %18
  unreachable
}

; Function Attrs: inlinehint nounwind uwtable
define internal void @Py_XINCREF(ptr noundef %0) #4 {
  %2 = alloca ptr, align 8
  store ptr %0, ptr %2, align 8, !tbaa !16
  %3 = load ptr, ptr %2, align 8, !tbaa !16
  %4 = icmp ne ptr %3, null
  br i1 %4, label %5, label %7

5:                                                ; preds = %1
  %6 = load ptr, ptr %2, align 8, !tbaa !16
  call void @Py_INCREF(ptr noundef %6)
  br label %7

7:                                                ; preds = %5, %1
  ret void
}

; Function Attrs: inlinehint nounwind uwtable
define internal ptr @_Py_XNewRef(ptr noundef %0) #4 {
  %2 = alloca ptr, align 8
  store ptr %0, ptr %2, align 8, !tbaa !16
  %3 = load ptr, ptr %2, align 8, !tbaa !16
  call void @Py_XINCREF(ptr noundef %3)
  %4 = load ptr, ptr %2, align 8, !tbaa !16
  ret ptr %4
}

; Function Attrs: nounwind uwtable
define internal ptr @getpath_isfile(ptr noundef %0, ptr noundef %1) #0 {
  %3 = alloca ptr, align 8
  %4 = alloca ptr, align 8
  %5 = alloca ptr, align 8
  %6 = alloca ptr, align 8
  %7 = alloca ptr, align 8
  %8 = alloca ptr, align 8
  %9 = alloca i32, align 4
  %10 = alloca %struct.stat, align 8
  store ptr %0, ptr %4, align 8, !tbaa !16
  store ptr %1, ptr %5, align 8, !tbaa !16
  call void @llvm.lifetime.start.p0(i64 8, ptr %6) #10
  store ptr null, ptr %6, align 8, !tbaa !16
  call void @llvm.lifetime.start.p0(i64 8, ptr %7) #10
  call void @llvm.lifetime.start.p0(i64 8, ptr %8) #10
  %11 = load ptr, ptr %5, align 8, !tbaa !16
  %12 = call i32 (ptr, ptr, ...) @PyArg_ParseTuple(ptr noundef %11, ptr noundef @.str.49, ptr noundef %7)
  %13 = icmp ne i32 %12, 0
  br i1 %13, label %15, label %14

14:                                               ; preds = %2
  store ptr null, ptr %3, align 8
  store i32 1, ptr %9, align 4
  br label %36

15:                                               ; preds = %2
  %16 = load ptr, ptr %7, align 8, !tbaa !16
  %17 = call ptr @PyUnicode_AsWideCharString(ptr noundef %16, ptr noundef null)
  store ptr %17, ptr %8, align 8, !tbaa !29
  %18 = load ptr, ptr %8, align 8, !tbaa !29
  %19 = icmp ne ptr %18, null
  br i1 %19, label %20, label %33

20:                                               ; preds = %15
  call void @llvm.lifetime.start.p0(i64 144, ptr %10) #10
  %21 = load ptr, ptr %8, align 8, !tbaa !29
  %22 = call i32 @_Py_wstat(ptr noundef %21, ptr noundef %10)
  %23 = icmp eq i32 %22, 0
  br i1 %23, label %24, label %29

24:                                               ; preds = %20
  %25 = getelementptr inbounds nuw %struct.stat, ptr %10, i32 0, i32 3
  %26 = load i32, ptr %25, align 8, !tbaa !39
  %27 = and i32 %26, 61440
  %28 = icmp eq i32 %27, 32768
  br label %29

29:                                               ; preds = %24, %20
  %30 = phi i1 [ false, %20 ], [ %28, %24 ]
  %31 = select i1 %30, ptr @_Py_TrueStruct, ptr @_Py_FalseStruct
  store ptr %31, ptr %6, align 8, !tbaa !16
  %32 = load ptr, ptr %8, align 8, !tbaa !29
  call void @PyMem_Free(ptr noundef %32)
  call void @llvm.lifetime.end.p0(i64 144, ptr %10) #10
  br label %33

33:                                               ; preds = %29, %15
  %34 = load ptr, ptr %6, align 8, !tbaa !16
  %35 = call ptr @_Py_XNewRef(ptr noundef %34)
  store ptr %35, ptr %3, align 8
  store i32 1, ptr %9, align 4
  br label %36

36:                                               ; preds = %33, %14
  call void @llvm.lifetime.end.p0(i64 8, ptr %8) #10
  call void @llvm.lifetime.end.p0(i64 8, ptr %7) #10
  call void @llvm.lifetime.end.p0(i64 8, ptr %6) #10
  %37 = load ptr, ptr %3, align 8
  ret ptr %37
}