; Function Attrs: nounwind uwtable
define internal ptr @getpath_isfile(ptr readnone captures(none) %0, ptr noundef %1) #0 {
  %3 = alloca ptr, align 8
  %4 = alloca %struct.stat, align 8
  call void @llvm.lifetime.start.p0(i64 8, ptr nonnull %3) #13
  %5 = call i32 (ptr, ptr, ...) @PyArg_ParseTuple(ptr noundef %1, ptr noundef nonnull @.str.49, ptr noundef nonnull %3) #13
  %.not = icmp eq i32 %5, 0
  br i1 %.not, label %_Py_XNewRef.exit, label %6

6:                                                ; preds = %2
  %7 = load ptr, ptr %3, align 8, !tbaa !31
  %8 = call ptr @PyUnicode_AsWideCharString(ptr noundef %7, ptr noundef null) #13
  %.not8 = icmp eq ptr %8, null
  br i1 %.not8, label %_Py_XNewRef.exit, label %9

9:                                                ; preds = %6
  call void @llvm.lifetime.start.p0(i64 144, ptr nonnull %4) #13
  %10 = call i32 @_Py_wstat(ptr noundef nonnull %8, ptr noundef nonnull %4) #13
  %11 = icmp eq i32 %10, 0
  %12 = getelementptr inbounds nuw i8, ptr %4, i64 24
  %13 = load i32, ptr %12, align 8
  %14 = and i32 %13, 61440
  %15 = icmp eq i32 %14, 32768
  %16 = select i1 %11, i1 %15, i1 false
  %17 = select i1 %16, ptr @_Py_TrueStruct, ptr @_Py_FalseStruct
  call void @PyMem_Free(ptr noundef nonnull %8) #13
  call void @llvm.lifetime.end.p0(i64 144, ptr nonnull %4) #13
  %18 = load i32, ptr %17, align 8, !tbaa !16
  %19 = icmp slt i32 %18, 0
  br i1 %19, label %_Py_XNewRef.exit, label %20

20:                                               ; preds = %9
  %21 = add nuw i32 %18, 1
  store i32 %21, ptr %17, align 8, !tbaa !16
  br label %_Py_XNewRef.exit

_Py_XNewRef.exit:                                 ; preds = %6, %20, %9, %2
  %.0 = phi ptr [ null, %2 ], [ %17, %9 ], [ %17, %20 ], [ null, %6 ]
  call void @llvm.lifetime.end.p0(i64 8, ptr nonnull %3) #13
  ret ptr %.0
}